; ModuleID = 'source-C-CXX/8/213.c'
source_filename = "source-C-CXX/8/213.c"
target datalayout = "e-m:e-p270:32:32-p271:32:32-p272:64:64-i64:64-f80:128-n8:16:32:64-S128"
target triple = "x86_64-pc-linux-gnu"

%struct.student = type { [20 x i8], i32, %struct.student* }

@.str = private unnamed_addr constant [6 x i8] c"%s %d\00", align 1
@.str.2 = private unnamed_addr constant [4 x i8] c"%d\0A\00", align 1

; Function Attrs: nofree nounwind sspstrong uwtable
define dso_local %struct.student* @creat(i32 %0) local_unnamed_addr #0 {
  %2 = tail call noalias align 16 dereferenceable_or_null(32) i8* @malloc(i64 32) #5
  %3 = bitcast i8* %2 to %struct.student*
  %4 = getelementptr inbounds %struct.student, %struct.student* %3, i64 0, i32 0, i64 0
  %5 = getelementptr inbounds %struct.student, %struct.student* %3, i64 0, i32 1
  %6 = tail call i32 (i8*, ...) @__isoc99_scanf(i8* getelementptr inbounds ([6 x i8], [6 x i8]* @.str, i64 0, i64 0), i8* %4, i32* nonnull %5)
  %7 = getelementptr inbounds %struct.student, %struct.student* %3, i64 0, i32 2
  store %struct.student* null, %struct.student** %7, align 8, !tbaa !5
  %8 = icmp sgt i32 %0, 1
  br i1 %8, label %9, label %58

9:                                                ; preds = %1
  %10 = add nsw i32 %0, -1
  br label %11

11:                                               ; preds = %9, %51
  %12 = phi i32 [ %56, %51 ], [ 0, %9 ]
  %13 = phi %struct.student* [ %54, %51 ], [ undef, %9 ]
  %14 = phi %struct.student* [ %53, %51 ], [ %3, %9 ]
  %15 = tail call noalias align 16 dereferenceable_or_null(32) i8* @malloc(i64 32) #5
  %16 = bitcast i8* %15 to %struct.student*
  %17 = getelementptr inbounds %struct.student, %struct.student* %16, i64 0, i32 0, i64 0
  %18 = getelementptr inbounds %struct.student, %struct.student* %16, i64 0, i32 1
  %19 = tail call i32 (i8*, ...) @__isoc99_scanf(i8* getelementptr inbounds ([6 x i8], [6 x i8]* @.str, i64 0, i64 0), i8* %17, i32* nonnull %18)
  %20 = load i32, i32* %18, align 4, !tbaa !11
  %21 = icmp sgt i32 %20, 59
  br i1 %21, label %22, label %26

22:                                               ; preds = %11
  %23 = getelementptr inbounds %struct.student, %struct.student* %14, i64 0, i32 1
  %24 = load i32, i32* %23, align 4, !tbaa !11
  %25 = icmp sgt i32 %20, %24
  br i1 %25, label %32, label %36

26:                                               ; preds = %11
  %27 = icmp eq %struct.student* %14, null
  br i1 %27, label %46, label %41

28:                                               ; preds = %36
  %29 = getelementptr inbounds %struct.student, %struct.student* %39, i64 0, i32 1
  %30 = load i32, i32* %29, align 4, !tbaa !11
  %31 = icmp sgt i32 %20, %30
  br i1 %31, label %32, label %36, !llvm.loop !12

32:                                               ; preds = %28, %22
  %33 = phi %struct.student* [ %14, %22 ], [ %37, %28 ]
  %34 = phi %struct.student* [ %14, %22 ], [ %39, %28 ]
  %35 = icmp eq %struct.student* %34, %33
  br i1 %35, label %51, label %46

36:                                               ; preds = %22, %28
  %37 = phi %struct.student* [ %39, %28 ], [ %14, %22 ]
  %38 = getelementptr inbounds %struct.student, %struct.student* %37, i64 0, i32 2
  %39 = load %struct.student*, %struct.student** %38, align 8, !tbaa !5
  %40 = icmp eq %struct.student* %39, null
  br i1 %40, label %46, label %28, !llvm.loop !12

41:                                               ; preds = %26, %41
  %42 = phi %struct.student* [ %44, %41 ], [ %14, %26 ]
  %43 = getelementptr inbounds %struct.student, %struct.student* %42, i64 0, i32 2
  %44 = load %struct.student*, %struct.student** %43, align 8, !tbaa !5
  %45 = icmp eq %struct.student* %44, null
  br i1 %45, label %46, label %41, !llvm.loop !14

46:                                               ; preds = %41, %36, %26, %32
  %47 = phi %struct.student* [ %33, %32 ], [ %13, %26 ], [ %37, %36 ], [ %42, %41 ]
  %48 = phi %struct.student* [ %34, %32 ], [ null, %26 ], [ null, %36 ], [ null, %41 ]
  %49 = getelementptr inbounds %struct.student, %struct.student* %47, i64 0, i32 2
  %50 = bitcast %struct.student** %49 to i8**
  store i8* %15, i8** %50, align 8, !tbaa !5
  br label %51

51:                                               ; preds = %46, %32
  %52 = phi %struct.student* [ %33, %32 ], [ %48, %46 ]
  %53 = phi %struct.student* [ %16, %32 ], [ %14, %46 ]
  %54 = phi %struct.student* [ %33, %32 ], [ %47, %46 ]
  %55 = getelementptr inbounds %struct.student, %struct.student* %16, i64 0, i32 2
  store %struct.student* %52, %struct.student** %55, align 8, !tbaa !5
  %56 = add nuw nsw i32 %12, 1
  %57 = icmp eq i32 %56, %10
  br i1 %57, label %58, label %11, !llvm.loop !15

58:                                               ; preds = %51, %1
  %59 = phi %struct.student* [ %3, %1 ], [ %53, %51 ]
  ret %struct.student* %59
}

; Function Attrs: argmemonly mustprogress nofree nosync nounwind willreturn
declare void @llvm.lifetime.start.p0i8(i64 immarg, i8* nocapture) #1

; Function Attrs: inaccessiblememonly mustprogress nofree nounwind willreturn
declare noalias noundef align 16 i8* @malloc(i64 noundef) local_unnamed_addr #2

; Function Attrs: nofree nounwind
declare noundef i32 @__isoc99_scanf(i8* nocapture noundef readonly, ...) local_unnamed_addr #3

; Function Attrs: argmemonly mustprogress nofree nosync nounwind willreturn
declare void @llvm.lifetime.end.p0i8(i64 immarg, i8* nocapture) #1

; Function Attrs: nofree nounwind sspstrong uwtable
define dso_local void @print(%struct.student* readonly %0) local_unnamed_addr #0 {
  %2 = icmp eq %struct.student* %0, null
  br i1 %2, label %10, label %3

3:                                                ; preds = %1, %3
  %4 = phi %struct.student* [ %8, %3 ], [ %0, %1 ]
  %5 = getelementptr inbounds %struct.student, %struct.student* %4, i64 0, i32 0, i64 0
  %6 = tail call i32 @puts(i8* nonnull %5)
  %7 = getelementptr inbounds %struct.student, %struct.student* %4, i64 0, i32 2
  %8 = load %struct.student*, %struct.student** %7, align 8, !tbaa !5
  %9 = icmp eq %struct.student* %8, null
  br i1 %9, label %10, label %3, !llvm.loop !16

10:                                               ; preds = %3, %1
  ret void
}

; Function Attrs: nofree nounwind sspstrong uwtable
define dso_local void @main() local_unnamed_addr #0 {
  %1 = alloca i32, align 4
  %2 = bitcast i32* %1 to i8*
  call void @llvm.lifetime.start.p0i8(i64 4, i8* nonnull %2) #5
  %3 = call i32 (i8*, ...) @__isoc99_scanf(i8* getelementptr inbounds ([4 x i8], [4 x i8]* @.str.2, i64 0, i64 0), i32* nonnull %1)
  %4 = load i32, i32* %1, align 4, !tbaa !17
  %5 = call %struct.student* @creat(i32 %4)
  %6 = icmp eq %struct.student* %5, null
  br i1 %6, label %14, label %7

7:                                                ; preds = %0, %7
  %8 = phi %struct.student* [ %12, %7 ], [ %5, %0 ]
  %9 = getelementptr inbounds %struct.student, %struct.student* %8, i64 0, i32 0, i64 0
  %10 = call i32 @puts(i8* nonnull %9) #5
  %11 = getelementptr inbounds %struct.student, %struct.student* %8, i64 0, i32 2
  %12 = load %struct.student*, %struct.student** %11, align 8, !tbaa !5
  %13 = icmp eq %struct.student* %12, null
  br i1 %13, label %14, label %7, !llvm.loop !16

14:                                               ; preds = %7, %0
  call void @llvm.lifetime.end.p0i8(i64 4, i8* nonnull %2) #5
  ret void
}

; Function Attrs: nofree nounwind
declare noundef i32 @puts(i8* nocapture noundef readonly) local_unnamed_addr #4


!llvm.module.flags = !{!0, !1, !2, !3}
!llvm.ident = !{!4}

!0 = !{i32 1, !"wchar_size", i32 4}
!1 = !{i32 7, !"PIC Level", i32 2}
!2 = !{i32 7, !"PIE Level", i32 2}
!3 = !{i32 7, !"uwtable", i32 1}
!4 = !{!"clang version 13.0.0"}
!5 = !{!6, !10, i64 24}
!6 = !{!"student", !7, i64 0, !9, i64 20, !10, i64 24}
!7 = !{!"omnipotent char", !8, i64 0}
!8 = !{!"Simple C/C++ TBAA"}
!9 = !{!"int", !7, i64 0}
!10 = !{!"any pointer", !7, i64 0}
!11 = !{!6, !9, i64 20}
!12 = distinct !{!12, !13}
!13 = !{!"llvm.loop.mustprogress"}
!14 = distinct !{!14, !13}
!15 = distinct !{!15, !13}
!16 = distinct !{!16, !13}
!17 = !{!9, !9, i64 0}
